; Function Attrs: nounwind uwtable
define dso_local void @ExecEndCteScan(ptr noundef captures(address) %0) local_unnamed_addr #0 {
  %2 = getelementptr inbounds nuw i8, ptr %0, i64 240
  %3 = load ptr, ptr %2, align 8
  %4 = icmp eq ptr %3, %0
  br i1 %4, label %5, label %8

5:                                                ; preds = %1
  %6 = getelementptr inbounds nuw i8, ptr %0, i64 248
  %7 = load ptr, ptr %6, align 8
  tail call void @tuplestore_end(ptr noundef %7) #3
  store ptr null, ptr %6, align 8
  br label %8

8:                                                ; preds = %5, %1
  ret void
}